; Function Attrs: nounwind sspstrong uwtable
define dso_local noundef zeroext i1 @visit_type_BlockdevCreateOptionsParallels(ptr noundef %v, ptr noundef %name, ptr noundef %obj, ptr noundef %errp) local_unnamed_addr #0 {
entry:
  %call = tail call zeroext i1 @visit_start_struct(ptr noundef %v, ptr noundef %name, ptr noundef %obj, i64 noundef 32, ptr noundef %errp) #5
  br i1 %call, label %if.end, label %return

if.end:                                           ; preds = %entry
  %0 = load ptr, ptr %obj, align 8
  %tobool.not = icmp eq ptr %0, null
  br i1 %tobool.not, label %if.then1, label %if.end5

if.then1:                                         ; preds = %if.end
  %call2 = tail call zeroext i1 @visit_is_dealloc(ptr noundef %v) #5
  br i1 %call2, label %out_obj.thread, label %if.else

out_obj.thread:                                   ; preds = %if.then1
  tail call void @visit_end_struct(ptr noundef %v, ptr noundef nonnull %obj) #5
  br label %return

if.else:                                          ; preds = %if.then1
  tail call void @__assert_fail(ptr noundef nonnull @.str.8, ptr noundef nonnull @.str.9, i32 noundef 7946, ptr noundef nonnull @__PRETTY_FUNCTION__.visit_type_BlockdevCreateOptionsParallels) #6
  unreachable

if.end5:                                          ; preds = %if.end
  %call.i = tail call zeroext i1 @visit_type_BlockdevRef(ptr noundef %v, ptr noundef nonnull @.str.63, ptr noundef nonnull %0, ptr noundef %errp)
  br i1 %call.i, label %if.end.i, label %out_obj.thread16

if.end.i:                                         ; preds = %if.end5
  %size.i = getelementptr inbounds nuw i8, ptr %0, i64 8
  %call1.i = tail call zeroext i1 @visit_type_size(ptr noundef %v, ptr noundef nonnull @.str.186, ptr noundef nonnull %size.i, ptr noundef %errp) #5
  br i1 %call1.i, label %if.end3.i, label %out_obj.thread16

if.end3.i:                                        ; preds = %if.end.i
  %has_cluster_size.i = getelementptr inbounds nuw i8, ptr %0, i64 16
  %call4.i = tail call zeroext i1 @visit_optional(ptr noundef %v, ptr noundef nonnull @.str.27, ptr noundef nonnull %has_cluster_size.i) #5
  br i1 %call4.i, label %if.then5.i, label %out_obj

if.then5.i:                                       ; preds = %if.end3.i
  %cluster_size.i = getelementptr inbounds nuw i8, ptr %0, i64 24
  %call6.i = tail call zeroext i1 @visit_type_size(ptr noundef %v, ptr noundef nonnull @.str.27, ptr noundef nonnull %cluster_size.i, ptr noundef %errp) #5
  br i1 %call6.i, label %out_obj, label %out_obj.thread16

out_obj.thread16:                                 ; preds = %if.then5.i, %if.end.i, %if.end5
  tail call void @visit_end_struct(ptr noundef %v, ptr noundef nonnull %obj) #5
  br label %land.lhs.true

out_obj:                                          ; preds = %if.end3.i, %if.then5.i
  %call9 = tail call zeroext i1 @visit_check_struct(ptr noundef %v, ptr noundef %errp) #5
  tail call void @visit_end_struct(ptr noundef %v, ptr noundef nonnull %obj) #5
  br i1 %call9, label %return, label %land.lhs.true

land.lhs.true:                                    ; preds = %out_obj.thread16, %out_obj
  %call11 = tail call zeroext i1 @visit_is_input(ptr noundef %v) #5
  br i1 %call11, label %if.then12, label %return

if.then12:                                        ; preds = %land.lhs.true
  %1 = load ptr, ptr %obj, align 8
  tail call void @qapi_free_BlockdevCreateOptionsParallels(ptr noundef %1) #5
  store ptr null, ptr %obj, align 8
  br label %return

return:                                           ; preds = %out_obj.thread, %out_obj, %land.lhs.true, %if.then12, %entry
  %retval.0 = phi i1 [ false, %entry ], [ false, %if.then12 ], [ false, %land.lhs.true ], [ true, %out_obj ], [ true, %out_obj.thread ]
  ret i1 %retval.0
}